; Function Attrs: mustprogress uwtable
define void @_ZN19OpenColorIO_v2_5dev9FileRules12setExtensionEmPKc(ptr noundef nonnull readonly align 8 captures(none) dereferenceable(16) %0, i64 noundef %1, ptr noundef %2) local_unnamed_addr #0 align 2 {
  %4 = getelementptr inbounds nuw i8, ptr %0, i64 8
  %5 = load ptr, ptr %4, align 8, !tbaa !6
  tail call void @_ZNK19OpenColorIO_v2_5dev9FileRules4Impl16validatePositionEmNS1_14DefaultAllowedE(ptr noundef nonnull align 8 dereferenceable(24) %5, i64 noundef %1, i32 noundef 1)
  %6 = load ptr, ptr %4, align 8, !tbaa !6
  %7 = load ptr, ptr %6, align 8, !tbaa !11
  %8 = getelementptr inbounds nuw %"class.std::shared_ptr.0", ptr %7, i64 %1
  %9 = load ptr, ptr %8, align 8, !tbaa !36
  tail call void @_ZN19OpenColorIO_v2_5dev8FileRule12setExtensionEPKc(ptr noundef nonnull align 8 dereferenceable(212) %9, ptr noundef %2)
  ret void
}